target datalayout = "e-m:e-p270:32:32-p271:32:32-p272:64:64-i64:64-i128:128-f80:128-n8:16:32:64-S128"
target triple = "x86_64-pc-linux-gnu"

%class.LogTagSet = type { ptr, i64, [5 x i32], [4 x i8], %class.LogOutputList, %class.LogDecorators, ptr }
%class.LogOutputList = type <{ [6 x ptr], i32, [4 x i8] }>
%class.LogDecorators = type { i32 }
%class.ObjectMonitor = type { %class.markWord, %class.WeakHandle, [48 x i8], ptr, i64, [48 x i8], ptr, i64, ptr, ptr, ptr, ptr, i32, i32, ptr, i32, i32 }
%class.markWord = type { i64 }
%class.WeakHandle = type { ptr }
%"struct.Atomic::PlatformLoad.26" = type { i8 }
%"struct.Atomic::PlatformStore" = type { i8 }
%"struct.Atomic::StoreImpl.32" = type { i8 }
%"struct.Atomic::LoadImpl.35" = type { i8 }

@LockingMode = external global i32, align 4
@g_assert_poison = external global ptr, align 8
@.str = private unnamed_addr constant [44 x i8] c"src/hotspot/share/runtime/objectMonitor.cpp\00", align 1
@.str.20 = private unnamed_addr constant [10 x i8] c"invariant\00", align 1
@.str.25 = private unnamed_addr constant [41 x i8] c"guarantee(current == owner_raw()) failed\00", align 1
@.str.26 = private unnamed_addr constant [24 x i8] c"complete_exit not owner\00", align 1
@.str.27 = private unnamed_addr constant [41 x i8] c"guarantee(owner_raw() != current) failed\00", align 1
@_ZN16LogTagSetMappingILN6LogTag4typeE90ELS1_106ELS1_0ELS1_0ELS1_0ELS1_0EE7_tagsetE = linkonce_odr hidden global %class.LogTagSet zeroinitializer, comdat, align 8
@.str.55 = private unnamed_addr constant [84 x i8] c"set_owner_from_BasicLock(): mid=0x%016lx, basic_lock_p=0x%016lx, new_value=0x%016lx\00", align 1

; Function Attrs: mustprogress nounwind uwtable
define linkonce_odr hidden noundef zeroext i1 @_ZNK13LogOutputList8is_levelEN8LogLevel4typeE(ptr noundef nonnull align 8 dereferenceable(52) %0, i32 noundef %1) #1 comdat align 2 {
  %3 = alloca ptr, align 8
  %4 = alloca i32, align 4
  store ptr %0, ptr %3, align 8
  store i32 %1, ptr %4, align 4
  %5 = load ptr, ptr %3, align 8
  %6 = getelementptr inbounds %class.LogOutputList, ptr %5, i32 0, i32 0
  %7 = load i32, ptr %4, align 4
  %8 = zext i32 %7 to i64
  %9 = getelementptr inbounds [6 x ptr], ptr %6, i64 0, i64 %8
  %10 = load volatile ptr, ptr %9, align 8
  %11 = icmp ne ptr %10, null
  ret i1 %11
}

; Function Attrs: mustprogress nounwind uwtable
define linkonce_odr hidden void @_ZNK6Atomic13PlatformStoreILm8EEclIPvEEvPVT_S4_(ptr noundef nonnull align 1 dereferenceable(1) %0, ptr noundef %1, ptr noundef %2) #1 comdat align 2 {
  %4 = alloca ptr, align 8
  %5 = alloca ptr, align 8
  %6 = alloca ptr, align 8
  store ptr %0, ptr %4, align 8
  store ptr %1, ptr %5, align 8
  store ptr %2, ptr %6, align 8
  %7 = load ptr, ptr %6, align 8
  %8 = load ptr, ptr %5, align 8
  store volatile ptr %7, ptr %8, align 8
  ret void
}

; Function Attrs: mustprogress nounwind uwtable
define linkonce_odr hidden noundef ptr @_ZNK6Atomic12PlatformLoadILm8EEclIPvEET_PVKS4_(ptr noundef nonnull align 1 dereferenceable(1) %0, ptr noundef %1) #1 comdat align 2 {
  %3 = alloca ptr, align 8
  %4 = alloca ptr, align 8
  store ptr %0, ptr %3, align 8
  store ptr %1, ptr %4, align 8
  %5 = load ptr, ptr %4, align 8
  %6 = load volatile ptr, ptr %5, align 8
  ret ptr %6
}

; Function Attrs: mustprogress nounwind uwtable
define linkonce_odr hidden noundef zeroext i1 @_ZNK9LogTagSet8is_levelEN8LogLevel4typeE(ptr noundef nonnull align 8 dereferenceable(112) %0, i32 noundef %1) #1 comdat align 2 {
  %3 = alloca ptr, align 8
  %4 = alloca i32, align 4
  store ptr %0, ptr %3, align 8
  store i32 %1, ptr %4, align 4
  %5 = load ptr, ptr %3, align 8
  %6 = getelementptr inbounds %class.LogTagSet, ptr %5, i32 0, i32 4
  %7 = load i32, ptr %4, align 4
  %8 = call noundef zeroext i1 @_ZNK13LogOutputList8is_levelEN8LogLevel4typeE(ptr noundef nonnull align 8 dereferenceable(52) %6, i32 noundef %7)
  ret i1 %8
}

; Function Attrs: mustprogress nounwind uwtable
define linkonce_odr hidden noundef nonnull align 8 dereferenceable(112) ptr @_ZN16LogTagSetMappingILN6LogTag4typeE90ELS1_106ELS1_0ELS1_0ELS1_0ELS1_0EE6tagsetEv() #1 comdat align 2 {
  ret ptr @_ZN16LogTagSetMappingILN6LogTag4typeE90ELS1_106ELS1_0ELS1_0ELS1_0ELS1_0EE7_tagsetE
}

; Function Attrs: mustprogress nounwind uwtable
define linkonce_odr hidden void @_ZNK6Atomic9StoreImplIPvP10JavaThreadNS_13PlatformStoreILm8EEEvEclEPVS1_S3_(ptr noundef nonnull align 1 dereferenceable(1) %0, ptr noundef %1, ptr noundef %2) #1 comdat align 2 {
  %4 = alloca ptr, align 8
  %5 = alloca ptr, align 8
  %6 = alloca ptr, align 8
  %7 = alloca ptr, align 8
  %8 = alloca %"struct.Atomic::PlatformStore", align 1
  store ptr %0, ptr %4, align 8
  store ptr %1, ptr %5, align 8
  store ptr %2, ptr %6, align 8
  %9 = load ptr, ptr %6, align 8
  store ptr %9, ptr %7, align 8
  %10 = load ptr, ptr %5, align 8
  %11 = load ptr, ptr %7, align 8
  call void @_ZNK6Atomic13PlatformStoreILm8EEclIPvEEvPVT_S4_(ptr noundef nonnull align 1 dereferenceable(1) %8, ptr noundef %10, ptr noundef %11)
  ret void
}

; Function Attrs: mustprogress nounwind uwtable
define linkonce_odr hidden noundef ptr @_ZNK6Atomic8LoadImplIPvNS_12PlatformLoadILm8EEEvEclEPVKS1_(ptr noundef nonnull align 1 dereferenceable(1) %0, ptr noundef %1) #1 comdat align 2 {
  %3 = alloca ptr, align 8
  %4 = alloca ptr, align 8
  %5 = alloca %"struct.Atomic::PlatformLoad.26", align 1
  store ptr %0, ptr %3, align 8
  store ptr %1, ptr %4, align 8
  %6 = load ptr, ptr %4, align 8
  %7 = call noundef ptr @_ZNK6Atomic12PlatformLoadILm8EEclIPvEET_PVKS4_(ptr noundef nonnull align 1 dereferenceable(1) %5, ptr noundef %6)
  ret ptr %7
}

; Function Attrs: mustprogress nounwind uwtable
define linkonce_odr hidden noundef i64 @_Z3p2iPVKv(ptr noundef %0) #1 comdat {
  %2 = alloca ptr, align 8
  store ptr %0, ptr %2, align 8
  %3 = load ptr, ptr %2, align 8
  %4 = ptrtoint ptr %3 to i64
  ret i64 %4
}

; Function Attrs: mustprogress nounwind uwtable
define linkonce_odr hidden noundef zeroext i1 @_ZN7LogImplILN6LogTag4typeE90ELS1_106ELS1_0ELS1_0ELS1_0ELS1_0EE8is_levelEN8LogLevel4typeE(i32 noundef %0) #1 comdat align 2 {
  %2 = alloca i32, align 4
  store i32 %0, ptr %2, align 4
  %3 = call noundef nonnull align 8 dereferenceable(112) ptr @_ZN16LogTagSetMappingILN6LogTag4typeE90ELS1_106ELS1_0ELS1_0ELS1_0ELS1_0EE6tagsetEv()
  %4 = load i32, ptr %2, align 4
  %5 = call noundef zeroext i1 @_ZNK9LogTagSet8is_levelEN8LogLevel4typeE(ptr noundef nonnull align 8 dereferenceable(112) %3, i32 noundef %4)
  ret i1 %5
}

; Function Attrs: mustprogress nounwind uwtable
define linkonce_odr hidden void @_ZN6Atomic5storeIPvP10JavaThreadEEvPVT_T0_(ptr noundef %0, ptr noundef %1) #1 comdat align 2 {
  %3 = alloca ptr, align 8
  %4 = alloca ptr, align 8
  %5 = alloca %"struct.Atomic::StoreImpl.32", align 1
  store ptr %0, ptr %3, align 8
  store ptr %1, ptr %4, align 8
  %6 = load ptr, ptr %3, align 8
  %7 = load ptr, ptr %4, align 8
  call void @_ZNK6Atomic9StoreImplIPvP10JavaThreadNS_13PlatformStoreILm8EEEvEclEPVS1_S3_(ptr noundef nonnull align 1 dereferenceable(1) %5, ptr noundef %6, ptr noundef %7)
  ret void
}

; Function Attrs: mustprogress nounwind uwtable
define linkonce_odr hidden noundef ptr @_ZN6Atomic4loadIPvEET_PVKS2_(ptr noundef %0) #1 comdat align 2 {
  %2 = alloca ptr, align 8
  %3 = alloca %"struct.Atomic::LoadImpl.35", align 1
  store ptr %0, ptr %2, align 8
  %4 = load ptr, ptr %2, align 8
  %5 = call noundef ptr @_ZNK6Atomic8LoadImplIPvNS_12PlatformLoadILm8EEEvEclEPVKS1_(ptr noundef nonnull align 1 dereferenceable(1) %3, ptr noundef %4)
  ret ptr %5
}

; Function Attrs: mustprogress nounwind uwtable
define linkonce_odr hidden void @_ZN13ObjectMonitor24set_owner_from_BasicLockEPvP10JavaThread(ptr noundef nonnull align 8 dereferenceable(200) %0, ptr noundef %1, ptr noundef %2) #1 comdat align 2 {
  %4 = alloca ptr, align 8
  %5 = alloca ptr, align 8
  %6 = alloca ptr, align 8
  store ptr %0, ptr %4, align 8
  store ptr %1, ptr %5, align 8
  store ptr %2, ptr %6, align 8
  %7 = load ptr, ptr %4, align 8
  %8 = getelementptr inbounds %class.ObjectMonitor, ptr %7, i32 0, i32 3
  %9 = load ptr, ptr %6, align 8
  call void @_ZN6Atomic5storeIPvP10JavaThreadEEvPVT_T0_(ptr noundef %8, ptr noundef %9)
  %10 = call noundef zeroext i1 @_ZN7LogImplILN6LogTag4typeE90ELS1_106ELS1_0ELS1_0ELS1_0ELS1_0EE8is_levelEN8LogLevel4typeE(i32 noundef 1)
  br i1 %10, label %12, label %11

11:                                               ; preds = %3
  br label %18

12:                                               ; preds = %3
  %13 = call noundef i64 @_Z3p2iPVKv(ptr noundef %7)
  %14 = load ptr, ptr %5, align 8
  %15 = call noundef i64 @_Z3p2iPVKv(ptr noundef %14)
  %16 = load ptr, ptr %6, align 8
  %17 = call noundef i64 @_Z3p2iPVKv(ptr noundef %16)
  call void (ptr, ...) @_ZN7LogImplILN6LogTag4typeE90ELS1_106ELS1_0ELS1_0ELS1_0ELS1_0EE5writeILN8LogLevel4typeE1EEEvPKcz(ptr noundef @.str.55, i64 noundef %13, i64 noundef %15, i64 noundef %17)
  br label %18

18:                                               ; preds = %12, %11
  ret void
}

; Function Attrs: mustprogress nounwind uwtable
define linkonce_odr hidden noundef ptr @_ZNK13ObjectMonitor9owner_rawEv(ptr noundef nonnull align 8 dereferenceable(200) %0) #1 comdat align 2 {
  %2 = alloca ptr, align 8
  store ptr %0, ptr %2, align 8
  %3 = load ptr, ptr %2, align 8
  %4 = getelementptr inbounds %class.ObjectMonitor, ptr %3, i32 0, i32 3
  %5 = call noundef ptr @_ZN6Atomic4loadIPvEET_PVKS2_(ptr noundef %4)
  ret ptr %5
}

; Function Attrs: mustprogress nounwind uwtable
define hidden noundef i64 @_ZN13ObjectMonitor13complete_exitEP10JavaThread(ptr noundef nonnull align 8 dereferenceable(200) %0, ptr noundef %1) #1 align 2 {
  %3 = alloca ptr, align 8
  %4 = alloca ptr, align 8
  %5 = alloca ptr, align 8
  %6 = alloca i64, align 8
  store ptr %0, ptr %3, align 8
  store ptr %1, ptr %4, align 8
  %7 = load ptr, ptr %3, align 8
  %8 = call noundef ptr @_ZNK13ObjectMonitor9owner_rawEv(ptr noundef nonnull align 8 dereferenceable(200) %7)
  store ptr %8, ptr %5, align 8
  %9 = load ptr, ptr %4, align 8
  %10 = load ptr, ptr %5, align 8
  %11 = icmp ne ptr %9, %10
  br i1 %11, label %12, label %24

12:                                               ; preds = %2
  %13 = load i32, ptr @LockingMode, align 4
  %14 = icmp ne i32 %13, 2
  br i1 %14, label %15, label %23

15:                                               ; preds = %12
  %16 = load ptr, ptr %4, align 8
  %17 = load ptr, ptr %5, align 8
  %18 = call noundef zeroext i1 @_ZNK10JavaThread13is_lock_ownedEPh(ptr noundef nonnull align 8 dereferenceable(1800) %16, ptr noundef %17)
  br i1 %18, label %19, label %23

19:                                               ; preds = %15
  %20 = load ptr, ptr %5, align 8
  %21 = load ptr, ptr %4, align 8
  call void @_ZN13ObjectMonitor24set_owner_from_BasicLockEPvP10JavaThread(ptr noundef nonnull align 8 dereferenceable(200) %7, ptr noundef %20, ptr noundef %21)
  %22 = getelementptr inbounds %class.ObjectMonitor, ptr %7, i32 0, i32 7
  store volatile i64 0, ptr %22, align 8
  br label %23

23:                                               ; preds = %19, %15, %12
  br label %24

24:                                               ; preds = %23, %2
  br label %25

25:                                               ; preds = %24
  %26 = load ptr, ptr %4, align 8
  %27 = call noundef ptr @_ZNK13ObjectMonitor9owner_rawEv(ptr noundef nonnull align 8 dereferenceable(200) %7)
  %28 = icmp eq ptr %26, %27
  br i1 %28, label %31, label %29

29:                                               ; preds = %25
  %30 = load ptr, ptr @g_assert_poison, align 8
  store i8 88, ptr %30, align 1
  call void (ptr, i32, ptr, ptr, ...) @_Z15report_vm_errorPKciS0_S0_z(ptr noundef @.str, i32 noundef 1401, ptr noundef @.str.25, ptr noundef @.str.26) #9
  unreachable

31:                                               ; preds = %25
  br label %32

32:                                               ; preds = %31
  %33 = getelementptr inbounds %class.ObjectMonitor, ptr %7, i32 0, i32 7
  %34 = load volatile i64, ptr %33, align 8
  store i64 %34, ptr %6, align 8
  %35 = getelementptr inbounds %class.ObjectMonitor, ptr %7, i32 0, i32 7
  store volatile i64 0, ptr %35, align 8
  %36 = load ptr, ptr %4, align 8
  call void @_ZN13ObjectMonitor4exitEP10JavaThreadb(ptr noundef nonnull align 8 dereferenceable(200) %7, ptr noundef %36, i1 noundef zeroext true)
  br label %37

37:                                               ; preds = %32
  %38 = call noundef ptr @_ZNK13ObjectMonitor9owner_rawEv(ptr noundef nonnull align 8 dereferenceable(200) %7)
  %39 = load ptr, ptr %4, align 8
  %40 = icmp ne ptr %38, %39
  br i1 %40, label %43, label %41

41:                                               ; preds = %37
  %42 = load ptr, ptr @g_assert_poison, align 8
  store i8 88, ptr %42, align 1
  call void (ptr, i32, ptr, ptr, ...) @_Z15report_vm_errorPKciS0_S0_z(ptr noundef @.str, i32 noundef 1405, ptr noundef @.str.27, ptr noundef @.str.20) #9
  unreachable

43:                                               ; preds = %37
  br label %44

44:                                               ; preds = %43
  %45 = load i64, ptr %6, align 8
  ret i64 %45
}