; Function Attrs: mustprogress nounwind uwtable
define hidden noundef i64 @_ZN13ObjectMonitor13complete_exitEP10JavaThread(ptr noundef nonnull align 8 dereferenceable(200) %0, ptr noundef %1) local_unnamed_addr #0 align 2 {
  %3 = getelementptr inbounds i8, ptr %0, i64 64
  %4 = load volatile ptr, ptr %3, align 8
  %5 = icmp ne ptr %4, %1
  %6 = load i32, ptr @LockingMode, align 4
  %7 = icmp ne i32 %6, 2
  %or.cond = select i1 %5, i1 %7, i1 false
  br i1 %or.cond, label %8, label %17

8:                                                ; preds = %2
  %9 = tail call noundef zeroext i1 @_ZNK10JavaThread13is_lock_ownedEPh(ptr noundef nonnull align 8 dereferenceable(1800) %1, ptr noundef %4) #12
  br i1 %9, label %10, label %17

10:                                               ; preds = %8
  store volatile ptr %1, ptr %3, align 8
  %11 = load volatile ptr, ptr getelementptr inbounds (i8, ptr @_ZN16LogTagSetMappingILN6LogTag4typeE90ELS1_106ELS1_0ELS1_0ELS1_0ELS1_0EE7_tagsetE, i64 48), align 8
  %.not.i = icmp eq ptr %11, null
  br i1 %.not.i, label %_ZN13ObjectMonitor24set_owner_from_BasicLockEPvP10JavaThread.exit, label %12

12:                                               ; preds = %10
  %13 = ptrtoint ptr %0 to i64
  %14 = ptrtoint ptr %4 to i64
  %15 = ptrtoint ptr %1 to i64
  tail call void (ptr, ...) @_ZN7LogImplILN6LogTag4typeE90ELS1_106ELS1_0ELS1_0ELS1_0ELS1_0EE5writeILN8LogLevel4typeE1EEEvPKcz(ptr noundef nonnull @.str.55, i64 noundef %13, i64 noundef %14, i64 noundef %15)
  br label %_ZN13ObjectMonitor24set_owner_from_BasicLockEPvP10JavaThread.exit

_ZN13ObjectMonitor24set_owner_from_BasicLockEPvP10JavaThread.exit: ; preds = %10, %12
  %16 = getelementptr inbounds i8, ptr %0, i64 136
  store volatile i64 0, ptr %16, align 8
  br label %17

17:                                               ; preds = %2, %_ZN13ObjectMonitor24set_owner_from_BasicLockEPvP10JavaThread.exit, %8
  %18 = load volatile ptr, ptr %3, align 8
  %19 = icmp eq ptr %18, %1
  br i1 %19, label %22, label %20

20:                                               ; preds = %17
  %21 = load ptr, ptr @g_assert_poison, align 8
  store i8 88, ptr %21, align 1
  tail call void (ptr, i32, ptr, ptr, ...) @_Z15report_vm_errorPKciS0_S0_z(ptr noundef nonnull @.str, i32 noundef 1401, ptr noundef nonnull @.str.25, ptr noundef nonnull @.str.26) #13
  unreachable

22:                                               ; preds = %17
  %23 = getelementptr inbounds i8, ptr %0, i64 136
  %24 = load volatile i64, ptr %23, align 8
  store volatile i64 0, ptr %23, align 8
  tail call void @_ZN13ObjectMonitor4exitEP10JavaThreadb(ptr noundef nonnull align 8 dereferenceable(200) %0, ptr noundef %1, i1 noundef zeroext true)
  %25 = load volatile ptr, ptr %3, align 8
  %.not = icmp eq ptr %25, %1
  br i1 %.not, label %26, label %28

26:                                               ; preds = %22
  %27 = load ptr, ptr @g_assert_poison, align 8
  store i8 88, ptr %27, align 1
  tail call void (ptr, i32, ptr, ptr, ...) @_Z15report_vm_errorPKciS0_S0_z(ptr noundef nonnull @.str, i32 noundef 1405, ptr noundef nonnull @.str.27, ptr noundef nonnull @.str.20) #13
  unreachable

28:                                               ; preds = %22
  ret i64 %24
}